target datalayout = "e-m:e-p270:32:32-p271:32:32-p272:64:64-i64:64-i128:128-f80:128-n8:16:32:64-S128"
target triple = "x86_64-pc-linux-gnu"

%class.QString = type { %struct.QArrayDataPointer }
%struct.QArrayDataPointer = type { ptr, ptr, i64 }
%class.VoipCallsDialog = type { %class.WiresharkDialog.base, i8, ptr, ptr, ptr, ptr, ptr, %struct._voip_calls_tapinfo, ptr, ptr, ptr, ptr, ptr, i8, ptr }
%class.WiresharkDialog.base = type <{ %class.GeometryStateDialog, ptr, i8, [7 x i8], %class.QString, %class.QList, i32, i8 }>
%class.GeometryStateDialog = type { %class.QDialog, %class.QString }
%class.QDialog = type { %class.QWidget }
%class.QWidget = type { %class.QObject, %class.QPaintDevice.base, ptr }
%class.QObject = type { ptr, %class.QScopedPointer }
%class.QScopedPointer = type { ptr }
%class.QPaintDevice.base = type <{ ptr, i16 }>
%class.QList = type { %struct.QArrayDataPointer.0 }
%struct.QArrayDataPointer.0 = type { ptr, ptr, i64 }
%struct._voip_calls_tapinfo = type { ptr, ptr, ptr, ptr, i32, ptr, [1 x ptr], i32, ptr, i32, i32, i32, ptr, ptr, i32, ptr, i32, i8, i32, ptr, i32, i32, i32, i8, i32, ptr, ptr, ptr, i8, i32, i32, i32, i16, i32, i32, i32, i32, i32, i32, i32, i32, i32 }
%class.Ui_VoipCallsDialog = type { ptr, ptr, ptr, ptr, ptr, ptr, ptr, ptr, ptr, ptr, ptr, ptr, ptr, ptr, ptr, ptr, ptr }
%class.QFlags = type { i32 }
%class.QEvent = type { ptr, i16, i8, i8, i8, i8, i16 }
%class.QKeyEvent = type <{ %class.QInputEvent, %class.QString, i32, i32, i32, i32, i16, [6 x i8] }>
%class.QInputEvent = type { %class.QEvent, ptr, i64, %class.QFlags, i32 }
%class.QFlag = type { i32 }

; Function Attrs: mustprogress nounwind uwtable
define linkonce_odr noundef i32 @_ZNK5QFlagcvjEv(ptr noundef nonnull align 4 dereferenceable(4) %0) #5 comdat align 2 {
  %2 = alloca ptr, align 8
  store ptr %0, ptr %2, align 8
  %3 = load ptr, ptr %2, align 8
  %4 = getelementptr inbounds %class.QFlag, ptr %3, i32 0, i32 0
  %5 = load i32, ptr %4, align 4
  ret i32 %5
}

; Function Attrs: mustprogress nounwind uwtable
define linkonce_odr void @_ZN6QFlagsIN2Qt16KeyboardModifierEEC2E5QFlag(ptr noundef nonnull align 4 dereferenceable(4) %0, i32 %1) unnamed_addr #5 comdat align 2 {
  %3 = alloca %class.QFlag, align 4
  %4 = alloca ptr, align 8
  %5 = getelementptr inbounds %class.QFlag, ptr %3, i32 0, i32 0
  store i32 %1, ptr %5, align 4
  store ptr %0, ptr %4, align 8
  %6 = load ptr, ptr %4, align 8
  %7 = getelementptr inbounds %class.QFlags, ptr %6, i32 0, i32 0
  %8 = call noundef i32 @_ZNK5QFlagcvjEv(ptr noundef nonnull align 4 dereferenceable(4) %3) #17
  store i32 %8, ptr %7, align 4
  ret void
}

; Function Attrs: mustprogress nounwind uwtable
define linkonce_odr void @_ZN5QFlagC2Ej(ptr noundef nonnull align 4 dereferenceable(4) %0, i32 noundef %1) unnamed_addr #5 comdat align 2 {
  %3 = alloca ptr, align 8
  %4 = alloca i32, align 4
  store ptr %0, ptr %3, align 8
  store i32 %1, ptr %4, align 4
  %5 = load ptr, ptr %3, align 8
  %6 = getelementptr inbounds %class.QFlag, ptr %5, i32 0, i32 0
  %7 = load i32, ptr %4, align 4
  store i32 %7, ptr %6, align 4
  ret void
}

; Function Attrs: mustprogress nounwind uwtable
define linkonce_odr i32 @_ZNK6QFlagsIN2Qt16KeyboardModifierEEorES1_(ptr noundef nonnull align 4 dereferenceable(4) %0, i32 noundef %1) #5 comdat align 2 {
  %3 = alloca %class.QFlags, align 4
  %4 = alloca ptr, align 8
  %5 = alloca i32, align 4
  %6 = alloca %class.QFlag, align 4
  store ptr %0, ptr %4, align 8
  store i32 %1, ptr %5, align 4
  %7 = load ptr, ptr %4, align 8
  %8 = getelementptr inbounds %class.QFlags, ptr %7, i32 0, i32 0
  %9 = load i32, ptr %8, align 4
  %10 = load i32, ptr %5, align 4
  %11 = or i32 %9, %10
  call void @_ZN5QFlagC2Ej(ptr noundef nonnull align 4 dereferenceable(4) %6, i32 noundef %11) #17
  %12 = getelementptr inbounds %class.QFlag, ptr %6, i32 0, i32 0
  %13 = load i32, ptr %12, align 4
  call void @_ZN6QFlagsIN2Qt16KeyboardModifierEEC2E5QFlag(ptr noundef nonnull align 4 dereferenceable(4) %3, i32 %13) #17
  %14 = getelementptr inbounds %class.QFlags, ptr %3, i32 0, i32 0
  %15 = load i32, ptr %14, align 4
  ret i32 %15
}

; Function Attrs: mustprogress nounwind uwtable
define linkonce_odr void @_ZN6QFlagsIN2Qt16KeyboardModifierEEC2ES1_(ptr noundef nonnull align 4 dereferenceable(4) %0, i32 noundef %1) unnamed_addr #5 comdat align 2 {
  %3 = alloca ptr, align 8
  %4 = alloca i32, align 4
  store ptr %0, ptr %3, align 8
  store i32 %1, ptr %4, align 4
  %5 = load ptr, ptr %3, align 8
  %6 = getelementptr inbounds %class.QFlags, ptr %5, i32 0, i32 0
  %7 = load i32, ptr %4, align 4
  store i32 %7, ptr %6, align 4
  ret void
}

; Function Attrs: mustprogress uwtable
define void @_ZN15VoipCallsDialog29on_actionSelectNone_triggeredEv(ptr noundef nonnull align 8 dereferenceable(480) %0) #0 align 2 {
  %2 = alloca ptr, align 8
  store ptr %0, ptr %2, align 8
  %3 = load ptr, ptr %2, align 8
  %4 = getelementptr inbounds %class.VoipCallsDialog, ptr %3, i32 0, i32 2
  %5 = load ptr, ptr %4, align 8
  %6 = getelementptr inbounds %class.Ui_VoipCallsDialog, ptr %5, i32 0, i32 10
  %7 = load ptr, ptr %6, align 8
  call void @_ZN17QAbstractItemView14clearSelectionEv(ptr noundef nonnull align 8 dereferenceable(40) %7)
  ret void
}

; Function Attrs: mustprogress nounwind uwtable
define linkonce_odr noundef zeroext i1 @_Zeq6QFlagsIN2Qt16KeyboardModifierEES2_(i32 %0, i32 %1) #5 comdat {
  %3 = alloca %class.QFlags, align 4
  %4 = alloca %class.QFlags, align 4
  %5 = getelementptr inbounds %class.QFlags, ptr %3, i32 0, i32 0
  store i32 %0, ptr %5, align 4
  %6 = getelementptr inbounds %class.QFlags, ptr %4, i32 0, i32 0
  store i32 %1, ptr %6, align 4
  %7 = getelementptr inbounds %class.QFlags, ptr %3, i32 0, i32 0
  %8 = load i32, ptr %7, align 4
  %9 = getelementptr inbounds %class.QFlags, ptr %4, i32 0, i32 0
  %10 = load i32, ptr %9, align 4
  %11 = icmp eq i32 %8, %10
  ret i1 %11
}

; Function Attrs: mustprogress nounwind uwtable
define linkonce_odr i32 @_ZN2QtorENS_16KeyboardModifierES0_(i32 noundef %0, i32 noundef %1) #5 comdat {
  %3 = alloca %class.QFlags, align 4
  %4 = alloca i32, align 4
  %5 = alloca i32, align 4
  %6 = alloca %class.QFlags, align 4
  store i32 %0, ptr %4, align 4
  store i32 %1, ptr %5, align 4
  %7 = load i32, ptr %4, align 4
  call void @_ZN6QFlagsIN2Qt16KeyboardModifierEEC2ES1_(ptr noundef nonnull align 4 dereferenceable(4) %6, i32 noundef %7) #17
  %8 = load i32, ptr %5, align 4
  %9 = call i32 @_ZNK6QFlagsIN2Qt16KeyboardModifierEEorES1_(ptr noundef nonnull align 4 dereferenceable(4) %6, i32 noundef %8) #17
  %10 = getelementptr inbounds %class.QFlags, ptr %3, i32 0, i32 0
  store i32 %9, ptr %10, align 4
  %11 = getelementptr inbounds %class.QFlags, ptr %3, i32 0, i32 0
  %12 = load i32, ptr %11, align 4
  ret i32 %12
}

; Function Attrs: mustprogress uwtable
define void @_ZN15VoipCallsDialog28on_actionSelectAll_triggeredEv(ptr noundef nonnull align 8 dereferenceable(480) %0) #0 align 2 {
  %2 = alloca ptr, align 8
  store ptr %0, ptr %2, align 8
  %3 = load ptr, ptr %2, align 8
  %4 = getelementptr inbounds %class.VoipCallsDialog, ptr %3, i32 0, i32 2
  %5 = load ptr, ptr %4, align 8
  %6 = getelementptr inbounds %class.Ui_VoipCallsDialog, ptr %5, i32 0, i32 10
  %7 = load ptr, ptr %6, align 8
  %8 = load ptr, ptr %7, align 8
  %9 = getelementptr inbounds ptr, ptr %8, i64 69
  %10 = load ptr, ptr %9, align 8
  call void %10(ptr noundef nonnull align 8 dereferenceable(40) %7)
  ret void
}

; Function Attrs: mustprogress uwtable
define void @_ZN15VoipCallsDialog31on_actionSelectInvert_triggeredEv(ptr noundef nonnull align 8 dereferenceable(480) %0) #0 align 2 {
  %2 = alloca ptr, align 8
  store ptr %0, ptr %2, align 8
  %3 = load ptr, ptr %2, align 8
  call void @_ZN15VoipCallsDialog15invertSelectionEv(ptr noundef nonnull align 8 dereferenceable(480) %3)
  ret void
}

; Function Attrs: mustprogress nounwind uwtable
define linkonce_odr noundef zeroext i1 @_Zeq6QFlagsIN2Qt16KeyboardModifierEES1_(i32 %0, i32 noundef %1) #5 comdat {
  %3 = alloca %class.QFlags, align 4
  %4 = alloca i32, align 4
  %5 = alloca %class.QFlags, align 4
  %6 = alloca %class.QFlags, align 4
  %7 = getelementptr inbounds %class.QFlags, ptr %3, i32 0, i32 0
  store i32 %0, ptr %7, align 4
  store i32 %1, ptr %4, align 4
  call void @llvm.memcpy.p0.p0.i64(ptr align 4 %5, ptr align 4 %3, i64 4, i1 false)
  %8 = load i32, ptr %4, align 4
  call void @_ZN6QFlagsIN2Qt16KeyboardModifierEEC2ES1_(ptr noundef nonnull align 4 dereferenceable(4) %6, i32 noundef %8) #17
  %9 = getelementptr inbounds %class.QFlags, ptr %5, i32 0, i32 0
  %10 = load i32, ptr %9, align 4
  %11 = getelementptr inbounds %class.QFlags, ptr %6, i32 0, i32 0
  %12 = load i32, ptr %11, align 4
  %13 = call noundef zeroext i1 @_Zeq6QFlagsIN2Qt16KeyboardModifierEES2_(i32 %10, i32 %12) #17
  ret i1 %13
}

; Function Attrs: mustprogress nounwind uwtable
define linkonce_odr noundef i32 @_ZNK9QKeyEvent3keyEv(ptr noundef nonnull align 8 dereferenceable(82) %0) #5 comdat align 2 {
  %2 = alloca ptr, align 8
  store ptr %0, ptr %2, align 8
  %3 = load ptr, ptr %2, align 8
  %4 = getelementptr inbounds %class.QKeyEvent, ptr %3, i32 0, i32 2
  %5 = load i32, ptr %4, align 8
  ret i32 %5
}

; Function Attrs: mustprogress nounwind uwtable
define linkonce_odr noundef i32 @_ZNK6QEvent4typeEv(ptr noundef nonnull align 8 dereferenceable(16) %0) #5 comdat align 2 {
  %2 = alloca ptr, align 8
  store ptr %0, ptr %2, align 8
  %3 = load ptr, ptr %2, align 8
  %4 = getelementptr inbounds %class.QEvent, ptr %3, i32 0, i32 1
  %5 = load i16, ptr %4, align 8
  %6 = zext i16 %5 to i32
  ret i32 %6
}

; Function Attrs: mustprogress uwtable
define noundef zeroext i1 @_ZN15VoipCallsDialog11eventFilterEP7QObjectP6QEvent(ptr noundef nonnull align 8 dereferenceable(480) %0, ptr noundef %1, ptr noundef %2) unnamed_addr #0 align 2 {
  %4 = alloca i1, align 1
  %5 = alloca ptr, align 8
  %6 = alloca ptr, align 8
  %7 = alloca ptr, align 8
  %8 = alloca ptr, align 8
  %9 = alloca %class.QFlags, align 4
  %10 = alloca %class.QFlags, align 4
  %11 = alloca %class.QFlags, align 4
  %12 = alloca %class.QFlags, align 4
  store ptr %0, ptr %5, align 8
  store ptr %1, ptr %6, align 8
  store ptr %2, ptr %7, align 8
  %13 = load ptr, ptr %5, align 8
  %14 = getelementptr inbounds %class.VoipCallsDialog, ptr %13, i32 0, i32 2
  %15 = load ptr, ptr %14, align 8
  %16 = getelementptr inbounds %class.Ui_VoipCallsDialog, ptr %15, i32 0, i32 10
  %17 = load ptr, ptr %16, align 8
  %18 = call noundef zeroext i1 @_ZNK7QWidget8hasFocusEv(ptr noundef nonnull align 8 dereferenceable(40) %17)
  br i1 %18, label %19, label %62

19:                                               ; preds = %3
  %20 = load ptr, ptr %7, align 8
  %21 = call noundef i32 @_ZNK6QEvent4typeEv(ptr noundef nonnull align 8 dereferenceable(16) %20)
  %22 = icmp eq i32 %21, 6
  br i1 %22, label %23, label %62

23:                                               ; preds = %19
  %24 = load ptr, ptr %7, align 8
  store ptr %24, ptr %8, align 8
  %25 = load ptr, ptr %8, align 8
  %26 = call noundef i32 @_ZNK9QKeyEvent3keyEv(ptr noundef nonnull align 8 dereferenceable(82) %25)
  switch i32 %26, label %60 [
    i32 73, label %27
    i32 65, label %36
    i32 83, label %58
    i32 68, label %59
  ]

27:                                               ; preds = %23
  %28 = load ptr, ptr %8, align 8
  %29 = call i32 @_ZNK9QKeyEvent9modifiersEv(ptr noundef nonnull align 8 dereferenceable(82) %28)
  %30 = getelementptr inbounds %class.QFlags, ptr %9, i32 0, i32 0
  store i32 %29, ptr %30, align 4
  %31 = getelementptr inbounds %class.QFlags, ptr %9, i32 0, i32 0
  %32 = load i32, ptr %31, align 4
  %33 = call noundef zeroext i1 @_Zeq6QFlagsIN2Qt16KeyboardModifierEES1_(i32 %32, i32 noundef 67108864) #17
  br i1 %33, label %34, label %35

34:                                               ; preds = %27
  call void @_ZN15VoipCallsDialog31on_actionSelectInvert_triggeredEv(ptr noundef nonnull align 8 dereferenceable(480) %13)
  store i1 true, ptr %4, align 1
  br label %63

35:                                               ; preds = %27
  br label %61

36:                                               ; preds = %23
  %37 = load ptr, ptr %8, align 8
  %38 = call i32 @_ZNK9QKeyEvent9modifiersEv(ptr noundef nonnull align 8 dereferenceable(82) %37)
  %39 = getelementptr inbounds %class.QFlags, ptr %10, i32 0, i32 0
  store i32 %38, ptr %39, align 4
  %40 = getelementptr inbounds %class.QFlags, ptr %10, i32 0, i32 0
  %41 = load i32, ptr %40, align 4
  %42 = call noundef zeroext i1 @_Zeq6QFlagsIN2Qt16KeyboardModifierEES1_(i32 %41, i32 noundef 67108864) #17
  br i1 %42, label %43, label %44

43:                                               ; preds = %36
  call void @_ZN15VoipCallsDialog28on_actionSelectAll_triggeredEv(ptr noundef nonnull align 8 dereferenceable(480) %13)
  store i1 true, ptr %4, align 1
  br label %63

44:                                               ; preds = %36
  %45 = load ptr, ptr %8, align 8
  %46 = call i32 @_ZNK9QKeyEvent9modifiersEv(ptr noundef nonnull align 8 dereferenceable(82) %45)
  %47 = getelementptr inbounds %class.QFlags, ptr %11, i32 0, i32 0
  store i32 %46, ptr %47, align 4
  %48 = call i32 @_ZN2QtorENS_16KeyboardModifierES0_(i32 noundef 33554432, i32 noundef 67108864) #17
  %49 = getelementptr inbounds %class.QFlags, ptr %12, i32 0, i32 0
  store i32 %48, ptr %49, align 4
  %50 = getelementptr inbounds %class.QFlags, ptr %11, i32 0, i32 0
  %51 = load i32, ptr %50, align 4
  %52 = getelementptr inbounds %class.QFlags, ptr %12, i32 0, i32 0
  %53 = load i32, ptr %52, align 4
  %54 = call noundef zeroext i1 @_Zeq6QFlagsIN2Qt16KeyboardModifierEES2_(i32 %51, i32 %53) #17
  br i1 %54, label %55, label %56

55:                                               ; preds = %44
  call void @_ZN15VoipCallsDialog29on_actionSelectNone_triggeredEv(ptr noundef nonnull align 8 dereferenceable(480) %13)
  store i1 true, ptr %4, align 1
  br label %63

56:                                               ; preds = %44
  br label %57

57:                                               ; preds = %56
  br label %61

58:                                               ; preds = %23
  call void @_ZN15VoipCallsDialog35on_actionSelectRtpStreams_triggeredEv(ptr noundef nonnull align 8 dereferenceable(480) %13)
  br label %61

59:                                               ; preds = %23
  call void @_ZN15VoipCallsDialog37on_actionDeselectRtpStreams_triggeredEv(ptr noundef nonnull align 8 dereferenceable(480) %13)
  br label %61

60:                                               ; preds = %23
  br label %61

61:                                               ; preds = %60, %59, %58, %57, %35
  br label %62

62:                                               ; preds = %61, %19, %3
  store i1 false, ptr %4, align 1
  br label %63

63:                                               ; preds = %62, %55, %43, %34
  %64 = load i1, ptr %4, align 1
  ret i1 %64
}