; Function Attrs: mustprogress uwtable
define noundef zeroext i1 @_ZN15VoipCallsDialog11eventFilterEP7QObjectP6QEvent(ptr noundef nonnull align 8 dereferenceable(480) %0, ptr nocapture noundef readnone %1, ptr noundef %2) unnamed_addr #0 align 2 {
  %4 = getelementptr inbounds i8, ptr %0, i64 136
  %5 = load ptr, ptr %4, align 8
  %6 = getelementptr inbounds i8, ptr %5, i64 80
  %7 = load ptr, ptr %6, align 8
  %8 = tail call noundef zeroext i1 @_ZNK7QWidget8hasFocusEv(ptr noundef nonnull align 8 dereferenceable(40) %7)
  br i1 %8, label %9, label %39

9:                                                ; preds = %3
  %10 = getelementptr inbounds i8, ptr %2, i64 8
  %11 = load i16, ptr %10, align 8
  %12 = icmp eq i16 %11, 6
  br i1 %12, label %13, label %39

13:                                               ; preds = %9
  %14 = getelementptr inbounds i8, ptr %2, i64 64
  %15 = load i32, ptr %14, align 8
  switch i32 %15, label %39 [
    i32 73, label %16
    i32 65, label %20
    i32 83, label %37
    i32 68, label %38
  ]

16:                                               ; preds = %13
  %17 = tail call i32 @_ZNK9QKeyEvent9modifiersEv(ptr noundef nonnull align 8 dereferenceable(82) %2)
  %18 = icmp eq i32 %17, 67108864
  br i1 %18, label %19, label %39

19:                                               ; preds = %16
  tail call void @_ZN15VoipCallsDialog15invertSelectionEv(ptr noundef nonnull align 8 dereferenceable(480) %0)
  br label %39

20:                                               ; preds = %13
  %21 = tail call i32 @_ZNK9QKeyEvent9modifiersEv(ptr noundef nonnull align 8 dereferenceable(82) %2)
  %22 = icmp eq i32 %21, 67108864
  br i1 %22, label %23, label %30

23:                                               ; preds = %20
  %24 = load ptr, ptr %4, align 8
  %25 = getelementptr inbounds i8, ptr %24, i64 80
  %26 = load ptr, ptr %25, align 8
  %27 = load ptr, ptr %26, align 8
  %28 = getelementptr inbounds i8, ptr %27, i64 552
  %29 = load ptr, ptr %28, align 8
  tail call void %29(ptr noundef nonnull align 8 dereferenceable(40) %26)
  br label %39

30:                                               ; preds = %20
  %31 = tail call i32 @_ZNK9QKeyEvent9modifiersEv(ptr noundef nonnull align 8 dereferenceable(82) %2)
  %32 = icmp eq i32 %31, 100663296
  br i1 %32, label %33, label %39

33:                                               ; preds = %30
  %34 = load ptr, ptr %4, align 8
  %35 = getelementptr inbounds i8, ptr %34, i64 80
  %36 = load ptr, ptr %35, align 8
  tail call void @_ZN17QAbstractItemView14clearSelectionEv(ptr noundef nonnull align 8 dereferenceable(40) %36)
  br label %39

37:                                               ; preds = %13
  tail call void @_ZN15VoipCallsDialog35on_actionSelectRtpStreams_triggeredEv(ptr noundef nonnull align 8 dereferenceable(480) %0)
  br label %39

38:                                               ; preds = %13
  tail call void @_ZN15VoipCallsDialog37on_actionDeselectRtpStreams_triggeredEv(ptr noundef nonnull align 8 dereferenceable(480) %0)
  br label %39

39:                                               ; preds = %3, %9, %13, %30, %16, %38, %37, %33, %23, %19
  %.0 = phi i1 [ true, %23 ], [ true, %33 ], [ true, %19 ], [ false, %37 ], [ false, %38 ], [ false, %16 ], [ false, %30 ], [ false, %13 ], [ false, %9 ], [ false, %3 ]
  ret i1 %.0
}